; Function Attrs: mustprogress uwtable
define void @_ZN5faiss20IndexIVFSpectralHashC2Ev(ptr noundef nonnull align 8 dereferenceable(312) %0) unnamed_addr #2 align 2 {
  tail call void @_ZN5faiss8IndexIVFC2Ev(ptr noundef nonnull align 8 dereferenceable(257) %0)
  store ptr getelementptr inbounds ({ [35 x ptr], [6 x ptr] }, ptr @_ZTVN5faiss20IndexIVFSpectralHashE, i64 0, i32 0, i64 2), ptr %0, align 8
  %2 = getelementptr inbounds i8, ptr %0, i64 40
  store ptr getelementptr inbounds ({ [35 x ptr], [6 x ptr] }, ptr @_ZTVN5faiss20IndexIVFSpectralHashE, i64 0, i32 1, i64 2), ptr %2, align 8
  %3 = getelementptr inbounds i8, ptr %0, i64 264
  store ptr null, ptr %3, align 8
  %4 = getelementptr inbounds i8, ptr %0, i64 272
  store i8 1, ptr %4, align 8
  %5 = getelementptr inbounds i8, ptr %0, i64 276
  %6 = getelementptr inbounds i8, ptr %0, i64 256
  store i8 0, ptr %6, align 8
  tail call void @llvm.memset.p0.i64(ptr noundef nonnull align 4 dereferenceable(36) %5, i8 0, i64 36, i1 false)
  ret void
}